; Function Attrs: mustprogress nounwind uwtable
define internal fastcc void @_ZNSt8_Rb_treeINSt7__cxx1112basic_stringIcSt11char_traitsIcESaIcEEESt4pairIKS5_N8nlohmann16json_abi_v3_11_310basic_jsonISt3mapSt6vectorS5_blmdN12_GLOBAL__N_112my_allocatorENS9_14adl_serializerESC_IhSaIhEEvEEESt10_Select1stISJ_ESt4lessIS5_ENSE_ISJ_EEED2Ev(ptr nocapture noundef nonnull readonly align 8 dereferenceable(48) %this) unnamed_addr #4 align 2 personality ptr @__gxx_personality_v0 {
entry:
  %0 = getelementptr inbounds i8, ptr %this, i64 16
  %this.val = load ptr, ptr %0, align 8
  invoke fastcc void @_ZNSt8_Rb_treeINSt7__cxx1112basic_stringIcSt11char_traitsIcESaIcEEESt4pairIKS5_N8nlohmann16json_abi_v3_11_310basic_jsonISt3mapSt6vectorS5_blmdN12_GLOBAL__N_112my_allocatorENS9_14adl_serializerESC_IhSaIhEEvEEESt10_Select1stISJ_ESt4lessIS5_ENSE_ISJ_EEE8_M_eraseEPSt13_Rb_tree_nodeISJ_E(ptr noundef %this.val)
          to label %invoke.cont unwind label %terminate.lpad

invoke.cont:                                      ; preds = %entry
  ret void

terminate.lpad:                                   ; preds = %entry
  %1 = landingpad { ptr, i32 }
          catch ptr null
  %2 = extractvalue { ptr, i32 } %1, 0
  tail call void @__clang_call_terminate(ptr %2) #19
  unreachable
}